-----BEGIN PRIVATE KEY-----
MIIEvQIBADANBgkqhkiG9w0BAQEFAASCBKcwggSjAgEAAoIBAQCx12LH93bG5JZE
as7zQHNuK97+1WDGulDajSti8NIXMjLwF5ZIvhE/Bpl6B4VYfUYJAzLGIrOlQL+Z
OwFg/gSr1cuzZYkSVt75woQutSQspXLJH9iAvNWzjOPC9IK21Z14HRuR52lBOA4d
sZ0RLaNrrFICjYXZFxfZIwY72lS1bsc5FK67kBdw3jrJRw7SAKK51uct5cxmAcny
rVRCTy8Xw3x94BBFsMA8mjOr2U9j3bRBzeV8Zy6I05YfNZEendscckit1JfITjA+
kODlLoAF+hYDANEePmjLnL+SoKRqxOlE+sqan7Wjdo0weIKbpXzMQEdQcCzq2GSb
MaMKhKWVAgMBAAECggEACxElPjPBz3oVeSfQaHDVU2t60rmX7ntVDBSxjimrA/Mw
Gk14IQoQQVokHjpDlmXNVZg+W6LN3SByC+i7xZET3KxO+INUDAZzP8WsEMqy9+2f
1AZITyfxKzLppY3ZEzmoiqX9EOT+ttFJ3O0wTLZeBMBSJi3aa3pgFeIebDEXs7vu
GfNKJtwz7xaQ99SnBplG0J57TZi6kcRa2x+KdWDaz/FcRm4IV3dDn8ASEMQAABv0
FSrKLMjPddcXvqMjkTXU3onL2/bj3+QjhR58XPbBB0zQC+/Nx+vNtKcsKBDOS5zw
vykgnHJWyaPIj4DGA8LZhP//eQt2yOr5hoKMXooHTQKBgQDmviyMdr8hYFmCGHvs
Z4HAKUJlB1C9Q8VcVNP8cFTItUlgNucahYsuheGJU3yWqQTRxm10+H2E0Y+kbHdf
kIxZj6zu366qlN0cg+9hoGKHDnqnGGXUSYuPmMAf1rFXxmwqS9TbHExC4WOLFjNS
zzpKj2aRdV/QG9F+g4vEBIVSfwKBgQDFTtEx+ResxZn/SGNCBAjpr3HXyTggiC4z
8S8Cb6jT7qzQxvaxkjkrQAUnFLZPZMqaTxbp21/NlHSoy+aAHztpNqZGd0oHpCKh
MrX+LxIb3So7SvJsjyIEliGELwmpTqD+UtBJ6PoBlXND2PJhaqa/gJGJQ8+yzTNl
dzOICeKV6wKBgQDPIsk7Dx5lB+lSMEiO4BxKNL+1keuY+82gJUZnxy9VPeiwxpiP
5nIbQXRFovylAvWgm1CHQMrtAHLCV9yRnWFgxOmpRoO1/gzAHHA4Y5IPS6AvgGdp
Otxd+/H8ou5wrV9MWOasC6sqHssNgNBx9jWN2U1qJsPsPgzCVbSSMry8YQKBgBmN
47o9MLvHu/I8Rd6+9wiNGImCHirYeGNx0UzXeV45g1hm7HyDG7RmTkSJgjM2MqdZ
pvYS242ctJ9ICUp+wQsXcOGfgY8LyxBlqPyKzCWft2CGjG9S+mztpNmh3fZ3oJJP
13o7GmYqHQukhX/oeEBFPpQwnC3kNcvmbF4qKZaRAoGAXozBJOrhtNGF906WtkOA
/V1t4py7zxM8PVj4mNois9xQMK84KxRutN5oqiPWLzbNAZNdUx72YZIGaZIKymdw
m32imDf+acTTzwxCyY/m3udWImNxpKI0CEVoX/DG8joJN5Z+8TLnvpNpXNYW1sMa
SXlb6r5peDiWS6Z5lBnN4hg=
-----END PRIVATE KEY-----
Certificate:
    Data:
        Version: 3 (0x2)
        Serial Number:
            d7:a1:90:47:50:17:84:f8
    Signature Algorithm: sha512WithRSAEncryption
        Issuer: L=Cambridge, ST=MA, O=Riverbed Technology, Inc., OU=MNMP id 4141216738836481, C=US, CN=cascade-express/emailAddress=support@riverbed.com
        Validity
            Not Before: Jan 27 16:32:41 2017 GMT
            Not After : Jan 25 16:32:41 2027 GMT
        Subject: L=Cambridge, ST=MA, O=Riverbed Technology, Inc., OU=MNMP id 4141216738836481, C=US, CN=cascade-express/emailAddress=support@riverbed.com
        Subject Public Key Info:
            Public Key Algorithm: rsaEncryption
                Public-Key: (2048 bit)
                Modulus:
                    00:b1:d7:62:c7:f7:76:c6:e4:96:44:6a:ce:f3:40:
                    73:6e:2b:de:fe:d5:60:c6:ba:50:da:8d:2b:62:f0:
                    d2:17:32:32:f0:17:96:48:be:11:3f:06:99:7a:07:
                    85:58:7d:46:09:03:32:c6:22:b3:a5:40:bf:99:3b:
                    01:60:fe:04:ab:d5:cb:b3:65:89:12:56:de:f9:c2:
                    84:2e:b5:24:2c:a5:72:c9:1f:d8:80:bc:d5:b3:8c:
                    e3:c2:f4:82:b6:d5:9d:78:1d:1b:91:e7:69:41:38:
                    0e:1d:b1:9d:11:2d:a3:6b:ac:52:02:8d:85:d9:17:
                    17:d9:23:06:3b:da:54:b5:6e:c7:39:14:ae:bb:90:
                    17:70:de:3a:c9:47:0e:d2:00:a2:b9:d6:e7:2d:e5:
                    cc:66:01:c9:f2:ad:54:42:4f:2f:17:c3:7c:7d:e0:
                    10:45:b0:c0:3c:9a:33:ab:d9:4f:63:dd:b4:41:cd:
                    e5:7c:67:2e:88:d3:96:1f:35:91:1e:9d:db:1c:72:
                    48:ad:d4:97:c8:4e:30:3e:90:e0:e5:2e:80:05:fa:
                    16:03:00:d1:1e:3e:68:cb:9c:bf:92:a0:a4:6a:c4:
                    e9:44:fa:ca:9a:9f:b5:a3:76:8d:30:78:82:9b:a5:
                    7c:cc:40:47:50:70:2c:ea:d8:64:9b:31:a3:0a:84:
                    a5:95
                Exponent: 65537 (0x10001)
        X509v3 extensions:
            X509v3 Subject Key Identifier: 
                AB:93:B1:86:87:CC:71:E7:03:D7:7A:1D:26:A3:74:10:33:BD:47:9A
            X509v3 Authority Key Identifier: 
                keyid:AB:93:B1:86:87:CC:71:E7:03:D7:7A:1D:26:A3:74:10:33:BD:47:9A

            Netscape Cert Type: 
                SSL Client, SSL Server
            X509v3 Extended Key Usage: 
                TLS Web Client Authentication, TLS Web Server Authentication
            X509v3 Subject Alternative Name: 
                email:support@riverbed.com, DNS:cascade-express, URI:https://cascade-express
    Signature Algorithm: sha512WithRSAEncryption
         2e:c5:de:89:41:2d:43:ef:d5:cd:24:7a:d7:61:c5:19:87:d4:
         4b:8f:14:ca:17:fd:b7:10:02:d7:ac:0b:ff:d2:03:79:ea:7d:
         fa:59:8c:e3:2d:94:ab:ca:cb:0e:aa:64:da:8d:3d:91:77:20:
         e5:44:10:7c:e1:8b:6c:1f:f3:03:50:7e:1e:57:15:c4:8b:34:
         9d:8d:1a:76:49:ca:7b:df:29:e3:a8:cb:df:2b:c5:7a:3f:7a:
         90:6e:8d:ea:6f:2e:07:04:a7:95:07:d0:38:78:5f:a4:4e:82:
         93:58:75:6e:eb:78:a4:4c:e6:ca:73:aa:f5:87:7f:e1:a6:96:
         a4:2a:7e:0f:c4:cd:df:24:0e:d9:d8:68:c0:83:4b:0b:b3:5a:
         08:1f:31:dc:9e:57:0c:5a:1d:1f:8d:d7:4f:9c:c7:97:d9:c9:
         cd:c9:5f:d4:21:d5:43:5e:1f:c3:07:eb:db:f6:1a:d8:22:ba:
         19:4e:46:14:f9:62:9a:5e:c8:07:0e:bf:98:9d:39:5c:a6:ab:
         44:92:11:8d:d1:2b:ae:d4:9e:f1:2f:f0:11:2e:e2:cf:9b:d1:
         b0:56:84:2f:52:11:6f:3c:6c:9f:0a:ec:73:c2:28:2e:80:73:
         3f:74:b3:4c:e2:37:c6:7a:a3:bc:c3:3f:7c:c4:cd:f0:ac:91:
         ad:ff:3f:d6
-----BEGIN CERTIFICATE-----
MIIErjCCA5agAwIBAgIJANehkEdQF4T4MA0GCSqGSIb3DQEBDQUAMIG0MRIwEAYD
VQQHDAlDYW1icmlkZ2UxCzAJBgNVBAgMAk1BMSIwIAYDVQQKDBlSaXZlcmJlZCBU
ZWNobm9sb2d5LCBJbmMuMSEwHwYDVQQLDBhNTk1QIGlkIDQxNDEyMTY3Mzg4MzY0
ODExCzAJBgNVBAYTAlVTMRgwFgYDVQQDDA9jYXNjYWRlLWV4cHJlc3MxIzAhBgkq
hkiG9w0BCQEWFHN1cHBvcnRAcml2ZXJiZWQuY29tMB4XDTE3MDEyNzE2MzI0MVoX
DTI3MDEyNTE2MzI0MVowgbQxEjAQBgNVBAcMCUNhbWJyaWRnZTELMAkGA1UECAwC
TUExIjAgBgNVBAoMGVJpdmVyYmVkIFRlY2hub2xvZ3ksIEluYy4xITAfBgNVBAsM
GE1OTVAgaWQgNDE0MTIxNjczODgzNjQ4MTELMAkGA1UEBhMCVVMxGDAWBgNVBAMM
D2Nhc2NhZGUtZXhwcmVzczEjMCEGCSqGSIb3DQEJARYUc3VwcG9ydEByaXZlcmJl
ZC5jb20wggEiMA0GCSqGSIb3DQEBAQUAA4IBDwAwggEKAoIBAQCx12LH93bG5JZE
as7zQHNuK97+1WDGulDajSti8NIXMjLwF5ZIvhE/Bpl6B4VYfUYJAzLGIrOlQL+Z
OwFg/gSr1cuzZYkSVt75woQutSQspXLJH9iAvNWzjOPC9IK21Z14HRuR52lBOA4d
sZ0RLaNrrFICjYXZFxfZIwY72lS1bsc5FK67kBdw3jrJRw7SAKK51uct5cxmAcny
rVRCTy8Xw3x94BBFsMA8mjOr2U9j3bRBzeV8Zy6I05YfNZEendscckit1JfITjA+
kODlLoAF+hYDANEePmjLnL+SoKRqxOlE+sqan7Wjdo0weIKbpXzMQEdQcCzq2GSb
MaMKhKWVAgMBAAGjgcAwgb0wHQYDVR0OBBYEFKuTsYaHzHHnA9d6HSajdBAzvUea
MB8GA1UdIwQYMBaAFKuTsYaHzHHnA9d6HSajdBAzvUeaMBEGCWCGSAGG+EIBAQQE
AwIGwDAdBgNVHSUEFjAUBggrBgEFBQcDAgYIKwYBBQUHAwEwSQYDVR0RBEIwQIEU
c3VwcG9ydEByaXZlcmJlZC5jb22CD2Nhc2NhZGUtZXhwcmVzc4YXaHR0cHM6Ly9j
YXNjYWRlLWV4cHJlc3MwDQYJKoZIhvcNAQENBQADggEBAC7F3olBLUPv1c0ketdh
xRmH1EuPFMoX/bcQAtesC//SA3nqffpZjOMtlKvKyw6qZNqNPZF3IOVEEHzhi2wf
8wNQfh5XFcSLNJ2NGnZJynvfKeOoy98rxXo/epBujepvLgcEp5UH0Dh4X6ROgpNY
dW7reKRM5spzqvWHf+GmlqQqfg/Ezd8kDtnYaMCDSwuzWggfMdyeVwxaHR+N10+c
x5fZyc3JX9Qh1UNeH8MH69v2GtgiuhlORhT5YppeyAcOv5idOVymq0SSEY3RK67U
nvEv8BEu4s+b0bBWhC9SEW88bJ8K7HPCKC6Acz90s0ziN8Z6o7zDP3zEzfCska3/
P9Y=
-----END CERTIFICATE-----
